target datalayout = "e-m:e-p270:32:32-p271:32:32-p272:64:64-i64:64-i128:128-f80:128-n8:16:32:64-S128"
target triple = "x86_64-pc-linux-gnu"

%struct.IDAMemRec = type { double, ptr, ptr, i32, double, double, ptr, i32, ptr, ptr, i32, ptr, ptr, i32, i32, double, double, ptr, i32, i32, i32, ptr, ptr, i32, ptr, ptr, ptr, i32, double, i32, i32, double, ptr, ptr, i32, ptr, ptr, i32, i32, i32, double, ptr, ptr, [6 x ptr], [6 x double], [6 x double], [6 x double], [6 x double], [6 x double], ptr, ptr, ptr, ptr, ptr, ptr, ptr, ptr, ptr, ptr, ptr, ptr, ptr, ptr, ptr, [6 x ptr], ptr, ptr, ptr, ptr, [6 x ptr], ptr, ptr, ptr, ptr, ptr, ptr, ptr, ptr, ptr, ptr, ptr, ptr, ptr, ptr, [6 x ptr], ptr, ptr, ptr, ptr, ptr, double, ptr, ptr, i32, i32, i32, i32, i32, i32, i32, double, double, double, i32, double, i32, i32, i32, i32, double, double, double, double, double, double, double, double, double, double, double, double, double, double, i32, i32, i32, i32, i32, i64, double, i32, i64, i64, i64, i64, i64, i64, i64, i64, i64, i64, i64, i64, i64, i64, i64, i64, i64, i64, i64, i64, i64, i64, i64, i64, ptr, ptr, ptr, i32, i32, i32, i32, i32, i32, i32, i32, i32, i32, i32, i32, i32, ptr, ptr, ptr, ptr, ptr, ptr, i32, i32, i32, i32, i32, i32, double, double, double, ptr, i32, ptr, ptr, double, double, double, ptr, ptr, ptr, double, double, i32, i32, i64, ptr, i32, i32, ptr, i32 }
%struct.IDAadjMemRec = type { double, double, i32, i32, double, ptr, i32, ptr, i32, ptr, ptr, i32, i64, ptr, i64, i32, ptr, ptr, ptr, ptr, i32, i32, i32, i32, i32, [6 x ptr], [6 x ptr], [6 x double], ptr, ptr, ptr, ptr, i64 }
%struct.IDABMemRec = type { i32, double, ptr, i32, i32, ptr, ptr, ptr, ptr, ptr, ptr, ptr, ptr, ptr, double, ptr, ptr, ptr }

@.str = private unnamed_addr constant [5 x i8] c"IDAA\00", align 1
@.str.2 = private unnamed_addr constant [24 x i8] c"ida_mem = NULL illegal.\00", align 1
@.str.7 = private unnamed_addr constant [51 x i8] c"Illegal attempt to call before calling IDAadjInit.\00", align 1
@.str.15 = private unnamed_addr constant [88 x i8] c"The initial time tB0 is outside the interval over which the forward problem was solved.\00", align 1
@.str.16 = private unnamed_addr constant [25 x i8] c"Illegal value for which.\00", align 1
@.str.19 = private unnamed_addr constant [11 x i8] c"IDAReInitB\00", align 1

; Function Attrs: nounwind uwtable
define i32 @IDAReInitB(ptr noundef %0, i32 noundef %1, double noundef %2, ptr noundef %3, ptr noundef %4) #0 {
  %6 = alloca i32, align 4
  %7 = alloca ptr, align 8
  %8 = alloca i32, align 4
  %9 = alloca double, align 8
  %10 = alloca ptr, align 8
  %11 = alloca ptr, align 8
  %12 = alloca ptr, align 8
  %13 = alloca ptr, align 8
  %14 = alloca ptr, align 8
  %15 = alloca ptr, align 8
  %16 = alloca i32, align 4
  %17 = alloca i32, align 4
  store ptr %0, ptr %7, align 8, !tbaa !3
  store i32 %1, ptr %8, align 4, !tbaa !9
  store double %2, ptr %9, align 8, !tbaa !73
  store ptr %3, ptr %10, align 8, !tbaa !74
  store ptr %4, ptr %11, align 8, !tbaa !74
  call void @llvm.lifetime.start.p0(i64 8, ptr %12) #6
  call void @llvm.lifetime.start.p0(i64 8, ptr %13) #6
  call void @llvm.lifetime.start.p0(i64 8, ptr %14) #6
  call void @llvm.lifetime.start.p0(i64 8, ptr %15) #6
  call void @llvm.lifetime.start.p0(i64 4, ptr %16) #6
  %18 = load ptr, ptr %7, align 8, !tbaa !3
  %19 = icmp eq ptr %18, null
  br i1 %19, label %20, label %21

20:                                               ; preds = %5
  call void (ptr, i32, ptr, ptr, ptr, ...) @IDAProcessError(ptr noundef null, i32 noundef -20, ptr noundef @.str, ptr noundef @.str.19, ptr noundef @.str.2)
  store i32 -20, ptr %6, align 4
  store i32 1, ptr %17, align 4
  br label %82

21:                                               ; preds = %5
  %22 = load ptr, ptr %7, align 8, !tbaa !3
  store ptr %22, ptr %13, align 8, !tbaa !11
  %23 = load ptr, ptr %13, align 8, !tbaa !11
  %24 = getelementptr inbounds nuw %struct.IDAMemRec, ptr %23, i32 0, i32 205
  %25 = load i32, ptr %24, align 8, !tbaa !51
  %26 = icmp eq i32 %25, 0
  br i1 %26, label %27, label %29

27:                                               ; preds = %21
  %28 = load ptr, ptr %13, align 8, !tbaa !11
  call void (ptr, i32, ptr, ptr, ptr, ...) @IDAProcessError(ptr noundef %28, i32 noundef -101, ptr noundef @.str, ptr noundef @.str.19, ptr noundef @.str.7)
  store i32 -101, ptr %6, align 4
  store i32 1, ptr %17, align 4
  br label %82

29:                                               ; preds = %21
  %30 = load ptr, ptr %13, align 8, !tbaa !11
  %31 = getelementptr inbounds nuw %struct.IDAMemRec, ptr %30, i32 0, i32 204
  %32 = load ptr, ptr %31, align 8, !tbaa !15
  store ptr %32, ptr %12, align 8, !tbaa !13
  %33 = load double, ptr %9, align 8, !tbaa !73
  %34 = load ptr, ptr %12, align 8, !tbaa !13
  %35 = getelementptr inbounds nuw %struct.IDAadjMemRec, ptr %34, i32 0, i32 0
  %36 = load double, ptr %35, align 8, !tbaa !94
  %37 = fcmp olt double %33, %36
  br i1 %37, label %44, label %38

38:                                               ; preds = %29
  %39 = load double, ptr %9, align 8, !tbaa !73
  %40 = load ptr, ptr %12, align 8, !tbaa !13
  %41 = getelementptr inbounds nuw %struct.IDAadjMemRec, ptr %40, i32 0, i32 1
  %42 = load double, ptr %41, align 8, !tbaa !93
  %43 = fcmp ogt double %39, %42
  br i1 %43, label %44, label %46

44:                                               ; preds = %38, %29
  %45 = load ptr, ptr %13, align 8, !tbaa !11
  call void (ptr, i32, ptr, ptr, ptr, ...) @IDAProcessError(ptr noundef %45, i32 noundef -104, ptr noundef @.str, ptr noundef @.str.19, ptr noundef @.str.15)
  store i32 -104, ptr %6, align 4
  store i32 1, ptr %17, align 4
  br label %82

46:                                               ; preds = %38
  %47 = load i32, ptr %8, align 4, !tbaa !9
  %48 = load ptr, ptr %12, align 8, !tbaa !13
  %49 = getelementptr inbounds nuw %struct.IDAadjMemRec, ptr %48, i32 0, i32 6
  %50 = load i32, ptr %49, align 8, !tbaa !46
  %51 = icmp sge i32 %47, %50
  br i1 %51, label %52, label %54

52:                                               ; preds = %46
  %53 = load ptr, ptr %13, align 8, !tbaa !11
  call void (ptr, i32, ptr, ptr, ptr, ...) @IDAProcessError(ptr noundef %53, i32 noundef -22, ptr noundef @.str, ptr noundef @.str.19, ptr noundef @.str.16)
  store i32 -22, ptr %6, align 4
  store i32 1, ptr %17, align 4
  br label %82

54:                                               ; preds = %46
  %55 = load ptr, ptr %12, align 8, !tbaa !13
  %56 = getelementptr inbounds nuw %struct.IDAadjMemRec, ptr %55, i32 0, i32 5
  %57 = load ptr, ptr %56, align 8, !tbaa !44
  store ptr %57, ptr %14, align 8, !tbaa !132
  br label %58

58:                                               ; preds = %68, %54
  %59 = load ptr, ptr %14, align 8, !tbaa !132
  %60 = icmp ne ptr %59, null
  br i1 %60, label %61, label %72

61:                                               ; preds = %58
  %62 = load i32, ptr %8, align 4, !tbaa !9
  %63 = load ptr, ptr %14, align 8, !tbaa !132
  %64 = getelementptr inbounds nuw %struct.IDABMemRec, ptr %63, i32 0, i32 0
  %65 = load i32, ptr %64, align 8, !tbaa !192
  %66 = icmp eq i32 %62, %65
  br i1 %66, label %67, label %68

67:                                               ; preds = %61
  br label %72

68:                                               ; preds = %61
  %69 = load ptr, ptr %14, align 8, !tbaa !132
  %70 = getelementptr inbounds nuw %struct.IDABMemRec, ptr %69, i32 0, i32 17
  %71 = load ptr, ptr %70, align 8, !tbaa !133
  store ptr %71, ptr %14, align 8, !tbaa !132
  br label %58, !llvm.loop !205

72:                                               ; preds = %67, %58
  %73 = load ptr, ptr %14, align 8, !tbaa !132
  %74 = getelementptr inbounds nuw %struct.IDABMemRec, ptr %73, i32 0, i32 2
  %75 = load ptr, ptr %74, align 8, !tbaa !135
  store ptr %75, ptr %15, align 8, !tbaa !3
  %76 = load ptr, ptr %15, align 8, !tbaa !3
  %77 = load double, ptr %9, align 8, !tbaa !73
  %78 = load ptr, ptr %10, align 8, !tbaa !74
  %79 = load ptr, ptr %11, align 8, !tbaa !74
  %80 = call i32 @IDAReInit(ptr noundef %76, double noundef %77, ptr noundef %78, ptr noundef %79)
  store i32 %80, ptr %16, align 4, !tbaa !9
  %81 = load i32, ptr %16, align 4, !tbaa !9
  store i32 %81, ptr %6, align 4
  store i32 1, ptr %17, align 4
  br label %82

82:                                               ; preds = %72, %52, %44, %27, %20
  call void @llvm.lifetime.end.p0(i64 4, ptr %16) #6
  call void @llvm.lifetime.end.p0(i64 8, ptr %15) #6
  call void @llvm.lifetime.end.p0(i64 8, ptr %14) #6
  call void @llvm.lifetime.end.p0(i64 8, ptr %13) #6
  call void @llvm.lifetime.end.p0(i64 8, ptr %12) #6
  %83 = load i32, ptr %6, align 4
  ret i32 %83
}